; Function Attrs: mustprogress nounwind uwtable
define dso_local void @_ZN4llvm21AppleAcceleratorTable5Entry7extractEPm(ptr noundef nonnull align 8 dereferenceable(176) %0, ptr noundef %1) local_unnamed_addr #3 align 2 {
  %3 = getelementptr inbounds nuw i8, ptr %0, i64 8
  %4 = load ptr, ptr %3, align 8
  %5 = tail call noundef i64 @_ZNK4llvm15SmallVectorBaseIjE4sizeEv(ptr noundef nonnull align 8 dereferenceable(16) %3) #27
  %6 = getelementptr inbounds %"class.llvm::DWARFFormValue", ptr %4, i64 %5
  %.not9 = icmp eq i64 %5, 0
  br i1 %.not9, label %._crit_edge, label %.lr.ph

.lr.ph:                                           ; preds = %2
  %7 = getelementptr inbounds nuw i8, ptr %0, i64 168
  br label %8

8:                                                ; preds = %.lr.ph, %8
  %.010 = phi ptr [ %4, %.lr.ph ], [ %13, %8 ]
  %9 = load ptr, ptr %7, align 8
  %10 = getelementptr inbounds nuw i8, ptr %9, i64 8
  %11 = getelementptr inbounds nuw i8, ptr %9, i64 136
  %.sroa.0.0.copyload = load i48, ptr %11, align 8
  %12 = tail call noundef zeroext i1 @_ZN4llvm14DWARFFormValue12extractValueERKNS_18DWARFDataExtractorEPmNS_5dwarf10FormParamsEPKNS_12DWARFContextEPKNS_9DWARFUnitE(ptr noundef nonnull align 8 dereferenceable(48) %.010, ptr noundef nonnull align 8 dereferenceable(40) %10, ptr noundef %1, i48 %.sroa.0.0.copyload, ptr noundef null, ptr noundef null) #27
  %13 = getelementptr inbounds nuw i8, ptr %.010, i64 48
  %.not = icmp eq ptr %13, %6
  br i1 %.not, label %._crit_edge, label %8

._crit_edge:                                      ; preds = %8, %2
  ret void
}